target datalayout = "e-m:e-p270:32:32-p271:32:32-p272:64:64-i64:64-i128:128-f80:128-n8:16:32:64-S128"
target triple = "x86_64-pc-linux-gnu"

%struct.bio_st = type { ptr, ptr, ptr, ptr, ptr, i32, i32, i32, i32, i32, ptr, ptr, ptr, %struct.CRYPTO_REF_COUNT, i64, i64, %struct.crypto_ex_data_st }
%struct.CRYPTO_REF_COUNT = type { i32 }
%struct.crypto_ex_data_st = type { ptr, ptr }
%struct.bio_bio_st = type { ptr, i32, i64, i64, i64, ptr, i64 }

@.str = private unnamed_addr constant [32 x i8] c"../openssl/crypto/bio/bss_bio.c\00", align 1

; Function Attrs: nounwind uwtable
define internal void @bio_destroy_pair(ptr noundef %0) #0 {
  %2 = alloca ptr, align 8
  %3 = alloca ptr, align 8
  %4 = alloca ptr, align 8
  %5 = alloca ptr, align 8
  store ptr %0, ptr %2, align 8, !tbaa !10
  call void @llvm.lifetime.start.p0(i64 8, ptr %3) #5
  %6 = load ptr, ptr %2, align 8, !tbaa !10
  %7 = getelementptr inbounds nuw %struct.bio_st, ptr %6, i32 0, i32 10
  %8 = load ptr, ptr %7, align 8, !tbaa !27
  store ptr %8, ptr %3, align 8, !tbaa !28
  %9 = load ptr, ptr %3, align 8, !tbaa !28
  %10 = icmp ne ptr %9, null
  br i1 %10, label %11, label %38

11:                                               ; preds = %1
  call void @llvm.lifetime.start.p0(i64 8, ptr %4) #5
  %12 = load ptr, ptr %3, align 8, !tbaa !28
  %13 = getelementptr inbounds nuw %struct.bio_bio_st, ptr %12, i32 0, i32 0
  %14 = load ptr, ptr %13, align 8, !tbaa !39
  store ptr %14, ptr %4, align 8, !tbaa !10
  %15 = load ptr, ptr %4, align 8, !tbaa !10
  %16 = icmp ne ptr %15, null
  br i1 %16, label %17, label %37

17:                                               ; preds = %11
  call void @llvm.lifetime.start.p0(i64 8, ptr %5) #5
  %18 = load ptr, ptr %4, align 8, !tbaa !10
  %19 = getelementptr inbounds nuw %struct.bio_st, ptr %18, i32 0, i32 10
  %20 = load ptr, ptr %19, align 8, !tbaa !27
  store ptr %20, ptr %5, align 8, !tbaa !28
  %21 = load ptr, ptr %5, align 8, !tbaa !28
  %22 = getelementptr inbounds nuw %struct.bio_bio_st, ptr %21, i32 0, i32 0
  store ptr null, ptr %22, align 8, !tbaa !39
  %23 = load ptr, ptr %4, align 8, !tbaa !10
  %24 = getelementptr inbounds nuw %struct.bio_st, ptr %23, i32 0, i32 5
  store i32 0, ptr %24, align 8, !tbaa !16
  %25 = load ptr, ptr %5, align 8, !tbaa !28
  %26 = getelementptr inbounds nuw %struct.bio_bio_st, ptr %25, i32 0, i32 2
  store i64 0, ptr %26, align 8, !tbaa !33
  %27 = load ptr, ptr %5, align 8, !tbaa !28
  %28 = getelementptr inbounds nuw %struct.bio_bio_st, ptr %27, i32 0, i32 3
  store i64 0, ptr %28, align 8, !tbaa !35
  %29 = load ptr, ptr %3, align 8, !tbaa !28
  %30 = getelementptr inbounds nuw %struct.bio_bio_st, ptr %29, i32 0, i32 0
  store ptr null, ptr %30, align 8, !tbaa !39
  %31 = load ptr, ptr %2, align 8, !tbaa !10
  %32 = getelementptr inbounds nuw %struct.bio_st, ptr %31, i32 0, i32 5
  store i32 0, ptr %32, align 8, !tbaa !16
  %33 = load ptr, ptr %3, align 8, !tbaa !28
  %34 = getelementptr inbounds nuw %struct.bio_bio_st, ptr %33, i32 0, i32 2
  store i64 0, ptr %34, align 8, !tbaa !33
  %35 = load ptr, ptr %3, align 8, !tbaa !28
  %36 = getelementptr inbounds nuw %struct.bio_bio_st, ptr %35, i32 0, i32 3
  store i64 0, ptr %36, align 8, !tbaa !35
  call void @llvm.lifetime.end.p0(i64 8, ptr %5) #5
  br label %37

37:                                               ; preds = %17, %11
  call void @llvm.lifetime.end.p0(i64 8, ptr %4) #5
  br label %38

38:                                               ; preds = %37, %1
  call void @llvm.lifetime.end.p0(i64 8, ptr %3) #5
  ret void
}

; Function Attrs: nounwind uwtable
define internal i32 @bio_free(ptr noundef %0) #0 {
  %2 = alloca i32, align 4
  %3 = alloca ptr, align 8
  %4 = alloca ptr, align 8
  %5 = alloca i32, align 4
  store ptr %0, ptr %3, align 8, !tbaa !10
  call void @llvm.lifetime.start.p0(i64 8, ptr %4) #5
  %6 = load ptr, ptr %3, align 8, !tbaa !10
  %7 = icmp eq ptr %6, null
  br i1 %7, label %8, label %9

8:                                                ; preds = %1
  store i32 0, ptr %2, align 4
  store i32 1, ptr %5, align 4
  br label %24

9:                                                ; preds = %1
  %10 = load ptr, ptr %3, align 8, !tbaa !10
  %11 = getelementptr inbounds nuw %struct.bio_st, ptr %10, i32 0, i32 10
  %12 = load ptr, ptr %11, align 8, !tbaa !27
  store ptr %12, ptr %4, align 8, !tbaa !28
  %13 = load ptr, ptr %4, align 8, !tbaa !28
  %14 = getelementptr inbounds nuw %struct.bio_bio_st, ptr %13, i32 0, i32 0
  %15 = load ptr, ptr %14, align 8, !tbaa !39
  %16 = icmp ne ptr %15, null
  br i1 %16, label %17, label %19

17:                                               ; preds = %9
  %18 = load ptr, ptr %3, align 8, !tbaa !10
  call void @bio_destroy_pair(ptr noundef %18)
  br label %19

19:                                               ; preds = %17, %9
  %20 = load ptr, ptr %4, align 8, !tbaa !28
  %21 = getelementptr inbounds nuw %struct.bio_bio_st, ptr %20, i32 0, i32 5
  %22 = load ptr, ptr %21, align 8, !tbaa !36
  call void @CRYPTO_free(ptr noundef %22, ptr noundef @.str, i32 noundef 103)
  %23 = load ptr, ptr %4, align 8, !tbaa !28
  call void @CRYPTO_free(ptr noundef %23, ptr noundef @.str, i32 noundef 104)
  store i32 1, ptr %2, align 4
  store i32 1, ptr %5, align 4
  br label %24

24:                                               ; preds = %19, %8
  call void @llvm.lifetime.end.p0(i64 8, ptr %4) #5
  %25 = load i32, ptr %2, align 4
  ret i32 %25
}