; Function Attrs: nounwind uwtable
define internal range(i32 0, 2) i32 @bio_free(ptr noundef captures(address_is_null) %0) #1 {
  %2 = icmp eq ptr %0, null
  br i1 %2, label %16, label %3

3:                                                ; preds = %1
  %4 = getelementptr inbounds nuw i8, ptr %0, i64 64
  %5 = load ptr, ptr %4, align 8, !tbaa !20
  %6 = load ptr, ptr %5, align 8, !tbaa !30
  %.not = icmp eq ptr %6, null
  br i1 %.not, label %13, label %bio_destroy_pair.exit

bio_destroy_pair.exit:                            ; preds = %3
  %7 = getelementptr inbounds nuw i8, ptr %6, i64 64
  %8 = load ptr, ptr %7, align 8, !tbaa !20
  store ptr null, ptr %8, align 8, !tbaa !30
  %9 = getelementptr inbounds nuw i8, ptr %6, i64 40
  store i32 0, ptr %9, align 8, !tbaa !8
  %10 = getelementptr inbounds nuw i8, ptr %8, i64 16
  tail call void @llvm.memset.p0.i64(ptr noundef nonnull align 8 dereferenceable(16) %10, i8 0, i64 16, i1 false)
  store ptr null, ptr %5, align 8, !tbaa !30
  %11 = getelementptr inbounds nuw i8, ptr %0, i64 40
  store i32 0, ptr %11, align 8, !tbaa !8
  %12 = getelementptr inbounds nuw i8, ptr %5, i64 16
  tail call void @llvm.memset.p0.i64(ptr noundef nonnull align 8 dereferenceable(16) %12, i8 0, i64 16, i1 false)
  br label %13

13:                                               ; preds = %bio_destroy_pair.exit, %3
  %14 = getelementptr inbounds nuw i8, ptr %5, i64 40
  %15 = load ptr, ptr %14, align 8, !tbaa !27
  tail call void @CRYPTO_free(ptr noundef %15, ptr noundef nonnull @.str, i32 noundef 103) #8
  tail call void @CRYPTO_free(ptr noundef nonnull %5, ptr noundef nonnull @.str, i32 noundef 104) #8
  br label %16

16:                                               ; preds = %1, %13
  %.0 = phi i32 [ 1, %13 ], [ 0, %1 ]
  ret i32 %.0
}